; Function Attrs: nounwind uwtable
define range(i32 -1, 1) i32 @H5C_log_write_expunge_entry_msg(ptr nocapture noundef readonly %0, i64 noundef %1, i32 noundef %2, i32 noundef %3) local_unnamed_addr #0 {
  %5 = getelementptr inbounds i8, ptr %0, i64 8
  %6 = load ptr, ptr %5, align 8
  %7 = getelementptr inbounds i8, ptr %6, i64 8
  %8 = load ptr, ptr %7, align 8
  %9 = getelementptr inbounds i8, ptr %8, i64 72
  %10 = load ptr, ptr %9, align 8
  %.not = icmp eq ptr %10, null
  br i1 %.not, label %20, label %11

11:                                               ; preds = %4
  %12 = getelementptr inbounds i8, ptr %6, i64 16
  %13 = load ptr, ptr %12, align 8
  %14 = tail call i32 %10(ptr noundef %13, i64 noundef %1, i32 noundef %2, i32 noundef %3) #3
  %15 = icmp slt i32 %14, 0
  br i1 %15, label %16, label %20

16:                                               ; preds = %11
  %17 = load i64, ptr @H5E_CACHE_g, align 8
  %18 = load i64, ptr @H5E_LOGGING_g, align 8
  %19 = tail call i32 (ptr, ptr, i32, i64, i64, ptr, ...) @H5E_printf_stack(ptr noundef nonnull @.str, ptr noundef nonnull @__func__.H5C_log_write_expunge_entry_msg, i32 noundef 383, i64 noundef %17, i64 noundef %18, ptr noundef nonnull @.str.17) #3
  br label %20

20:                                               ; preds = %4, %11, %16
  %.0 = phi i32 [ -1, %16 ], [ 0, %11 ], [ 0, %4 ]
  ret i32 %.0
}